; Function Attrs: nounwind sspstrong uwtable
define internal noundef i32 @tally_up(ptr noundef readonly captures(none) %0, ptr noundef captures(none) %1, i64 noundef %2, i32 noundef %3) #0 {
  %5 = load i64, ptr %1, align 8, !tbaa !7
  %.not = icmp eq i32 %3, 0
  br i1 %.not, label %rb_obj_written.exit, label %6

6:                                                ; preds = %4
  %7 = and i64 %5, 1
  %8 = icmp ne i64 %7, 0
  %9 = icmp ult i64 %5, 9223372036854775807
  %or.cond = and i1 %9, %8
  br i1 %or.cond, label %10, label %12

10:                                               ; preds = %6
  %11 = add nuw i64 %5, 2
  br label %rb_obj_written.exit

12:                                               ; preds = %6
  %13 = icmp eq i64 %5, 0
  %14 = and i64 %5, 7
  %15 = icmp ne i64 %14, 0
  %16 = or i1 %13, %15
  br i1 %16, label %rbimpl_RB_TYPE_P_fastpath.exit.thread.i, label %rbimpl_RB_TYPE_P_fastpath.exit.i, !prof !68

rbimpl_RB_TYPE_P_fastpath.exit.i:                 ; preds = %12
  %17 = inttoptr i64 %5 to ptr
  %18 = load i64, ptr %17, align 8, !tbaa !20
  %19 = and i64 %18, 31
  %20 = icmp eq i64 %19, 10
  br i1 %20, label %Check_Type.exit, label %rbimpl_RB_TYPE_P_fastpath.exit.thread.i, !prof !113

rbimpl_RB_TYPE_P_fastpath.exit.thread.i:          ; preds = %rbimpl_RB_TYPE_P_fastpath.exit.i, %12
  tail call void @rb_unexpected_type(i64 noundef %5, i32 noundef 10) #18
  unreachable

Check_Type.exit:                                  ; preds = %rbimpl_RB_TYPE_P_fastpath.exit.i
  %21 = tail call i64 @rb_big_plus(i64 noundef %5, i64 noundef 3) #14
  %22 = icmp eq i64 %21, 0
  %23 = and i64 %21, 7
  %24 = icmp ne i64 %23, 0
  %25 = or i1 %22, %24
  br i1 %25, label %rb_obj_written.exit, label %26

26:                                               ; preds = %Check_Type.exit
  tail call void @rb_gc_writebarrier(i64 noundef %2, i64 noundef %21) #14
  br label %rb_obj_written.exit

rb_obj_written.exit:                              ; preds = %26, %Check_Type.exit, %4, %10
  %.0 = phi i64 [ %11, %10 ], [ 3, %4 ], [ %21, %Check_Type.exit ], [ %21, %26 ]
  store i64 %.0, ptr %1, align 8, !tbaa !7
  %27 = load i64, ptr %0, align 8, !tbaa !7
  %28 = icmp eq i64 %27, 0
  %29 = and i64 %27, 7
  %30 = icmp ne i64 %29, 0
  %31 = or i1 %28, %30
  br i1 %31, label %32, label %rb_obj_written.exit16

rb_obj_written.exit16:                            ; preds = %rb_obj_written.exit
  tail call void @rb_gc_writebarrier(i64 noundef %2, i64 noundef %27) #14
  br label %32

32:                                               ; preds = %rb_obj_written.exit16, %rb_obj_written.exit
  ret i32 0
}